; ModuleID = '6/81.c'
source_filename = "6/81.c"
target datalayout = "e-m:e-p270:32:32-p271:32:32-p272:64:64-i64:64-f80:128-n8:16:32:64-S128"
target triple = "x86_64-pc-linux-gnu"

@.str = private unnamed_addr constant [6 x i8] c"%d %d\00", align 1
@.str.1 = private unnamed_addr constant [3 x i8] c"%d\00", align 1
@.str.2 = private unnamed_addr constant [4 x i8] c"%d\0A\00", align 1

; Function Attrs: noinline nounwind uwtable
define dso_local void @sum(i32 %0) #0 {
  %2 = alloca i32, align 4
  %3 = alloca i32, align 4
  %4 = alloca i32, align 4
  %5 = alloca i32, align 4
  %6 = alloca i32, align 4
  %7 = alloca i32, align 4
  %8 = alloca [100 x i32]*, align 8
  store i32 %0, i32* %2, align 4
  store i32 0, i32* %7, align 4
  %9 = call i32 (i8*, ...) @__isoc99_scanf(i8* getelementptr inbounds ([6 x i8], [6 x i8]* @.str, i64 0, i64 0), i32* %3, i32* %4)
  %10 = call noalias i8* @calloc(i64 100, i64 400) #3
  %11 = bitcast i8* %10 to [100 x i32]*
  store [100 x i32]* %11, [100 x i32]** %8, align 8
  store i32 0, i32* %5, align 4
  br label %12

12:                                               ; preds = %35, %1
  %13 = load i32, i32* %5, align 4
  %14 = load i32, i32* %3, align 4
  %15 = icmp slt i32 %13, %14
  br i1 %15, label %16, label %38

16:                                               ; preds = %12
  store i32 0, i32* %6, align 4
  br label %17

17:                                               ; preds = %31, %16
  %18 = load i32, i32* %6, align 4
  %19 = load i32, i32* %4, align 4
  %20 = icmp slt i32 %18, %19
  br i1 %20, label %21, label %34

21:                                               ; preds = %17
  %22 = load [100 x i32]*, [100 x i32]** %8, align 8
  %23 = load i32, i32* %5, align 4
  %24 = sext i32 %23 to i64
  %25 = getelementptr inbounds [100 x i32], [100 x i32]* %22, i64 %24
  %26 = getelementptr inbounds [100 x i32], [100 x i32]* %25, i64 0, i64 0
  %27 = load i32, i32* %6, align 4
  %28 = sext i32 %27 to i64
  %29 = getelementptr inbounds i32, i32* %26, i64 %28
  %30 = call i32 (i8*, ...) @__isoc99_scanf(i8* getelementptr inbounds ([3 x i8], [3 x i8]* @.str.1, i64 0, i64 0), i32* %29)
  br label %31

31:                                               ; preds = %21
  %32 = load i32, i32* %6, align 4
  %33 = add nsw i32 %32, 1
  store i32 %33, i32* %6, align 4
  br label %17

34:                                               ; preds = %17
  br label %35

35:                                               ; preds = %34
  %36 = load i32, i32* %5, align 4
  %37 = add nsw i32 %36, 1
  store i32 %37, i32* %5, align 4
  br label %12

38:                                               ; preds = %12
  store i32 0, i32* %5, align 4
  br label %39

39:                                               ; preds = %93, %38
  %40 = load i32, i32* %5, align 4
  %41 = load i32, i32* %3, align 4
  %42 = icmp slt i32 %40, %41
  br i1 %42, label %43, label %96

43:                                               ; preds = %39
  %44 = load i32, i32* %5, align 4
  %45 = icmp eq i32 %44, 0
  br i1 %45, label %51, label %46

46:                                               ; preds = %43
  %47 = load i32, i32* %5, align 4
  %48 = load i32, i32* %3, align 4
  %49 = sub nsw i32 %48, 1
  %50 = icmp eq i32 %47, %49
  br i1 %50, label %51, label %72

51:                                               ; preds = %46, %43
  store i32 0, i32* %6, align 4
  br label %52

52:                                               ; preds = %68, %51
  %53 = load i32, i32* %6, align 4
  %54 = load i32, i32* %4, align 4
  %55 = icmp slt i32 %53, %54
  br i1 %55, label %56, label %71

56:                                               ; preds = %52
  %57 = load i32, i32* %7, align 4
  %58 = load [100 x i32]*, [100 x i32]** %8, align 8
  %59 = load i32, i32* %5, align 4
  %60 = sext i32 %59 to i64
  %61 = getelementptr inbounds [100 x i32], [100 x i32]* %58, i64 %60
  %62 = getelementptr inbounds [100 x i32], [100 x i32]* %61, i64 0, i64 0
  %63 = load i32, i32* %6, align 4
  %64 = sext i32 %63 to i64
  %65 = getelementptr inbounds i32, i32* %62, i64 %64
  %66 = load i32, i32* %65, align 4
  %67 = add nsw i32 %57, %66
  store i32 %67, i32* %7, align 4
  br label %68

68:                                               ; preds = %56
  %69 = load i32, i32* %6, align 4
  %70 = add nsw i32 %69, 1
  store i32 %70, i32* %6, align 4
  br label %52

71:                                               ; preds = %52
  br label %92

72:                                               ; preds = %46
  %73 = load i32, i32* %7, align 4
  %74 = load [100 x i32]*, [100 x i32]** %8, align 8
  %75 = load i32, i32* %5, align 4
  %76 = sext i32 %75 to i64
  %77 = getelementptr inbounds [100 x i32], [100 x i32]* %74, i64 %76
  %78 = getelementptr inbounds [100 x i32], [100 x i32]* %77, i64 0, i64 0
  %79 = load i32, i32* %78, align 4
  %80 = add nsw i32 %73, %79
  %81 = load [100 x i32]*, [100 x i32]** %8, align 8
  %82 = load i32, i32* %5, align 4
  %83 = sext i32 %82 to i64
  %84 = getelementptr inbounds [100 x i32], [100 x i32]* %81, i64 %83
  %85 = getelementptr inbounds [100 x i32], [100 x i32]* %84, i64 0, i64 0
  %86 = load i32, i32* %4, align 4
  %87 = sext i32 %86 to i64
  %88 = getelementptr inbounds i32, i32* %85, i64 %87
  %89 = getelementptr inbounds i32, i32* %88, i64 -1
  %90 = load i32, i32* %89, align 4
  %91 = add nsw i32 %80, %90
  store i32 %91, i32* %7, align 4
  br label %92

92:                                               ; preds = %72, %71
  br label %93

93:                                               ; preds = %92
  %94 = load i32, i32* %5, align 4
  %95 = add nsw i32 %94, 1
  store i32 %95, i32* %5, align 4
  br label %39

96:                                               ; preds = %39
  %97 = load i32, i32* %7, align 4
  %98 = call i32 (i8*, ...) @printf(i8* getelementptr inbounds ([4 x i8], [4 x i8]* @.str.2, i64 0, i64 0), i32 %97)
  ret void
}

declare dso_local i32 @__isoc99_scanf(i8*, ...) #1

; Function Attrs: nounwind
declare dso_local noalias i8* @calloc(i64, i64) #2

declare dso_local i32 @printf(i8*, ...) #1

; Function Attrs: noinline nounwind uwtable
define dso_local void @main() #0 {
  %1 = alloca i32, align 4
  %2 = alloca i32, align 4
  %3 = call i32 (i8*, ...) @__isoc99_scanf(i8* getelementptr inbounds ([3 x i8], [3 x i8]* @.str.1, i64 0, i64 0), i32* %1)
  store i32 0, i32* %2, align 4
  br label %4

4:                                                ; preds = %10, %0
  %5 = load i32, i32* %2, align 4
  %6 = load i32, i32* %1, align 4
  %7 = icmp slt i32 %5, %6
  br i1 %7, label %8, label %13

8:                                                ; preds = %4
  %9 = load i32, i32* %2, align 4
  call void @sum(i32 %9)
  br label %10

10:                                               ; preds = %8
  %11 = load i32, i32* %2, align 4
  %12 = add nsw i32 %11, 1
  store i32 %12, i32* %2, align 4
  br label %4

13:                                               ; preds = %4
  ret void
}


!llvm.module.flags = !{!0}
!llvm.ident = !{!1}

!0 = !{i32 1, !"wchar_size", i32 4}
!1 = !{!"clang version 10.0.0-4ubuntu1 "}
